
main.axf:     file format elf32-tradbigmips

Disassembly of section .text:

00000000 <.text>:
   0:	3c1c0001 	lui	gp,0x1
   4:	279c8660 	addiu	gp,gp,-31136
   8:	3c050000 	lui	a1,0x0
   c:	24a50670 	addiu	a1,a1,1648
  10:	3c040000 	lui	a0,0x0
  14:	248408b0 	addiu	a0,a0,2224
  18:	3c1d0000 	lui	sp,0x0
  1c:	27bd0858 	addiu	sp,sp,2136
  20:	aca00000 	sw	zero,0(a1)
  24:	00a4182a 	slt	v1,a1,a0
  28:	1460fffd 	bnez	v1,0x20
  2c:	24a50004 	addiu	a1,a1,4
  30:	0c000096 	jal	0x258
  34:	00000000 	nop
  38:	0800000e 	j	0x38
  3c:	23bdff98 	addi	sp,sp,-104
  40:	afa10010 	sw	at,16(sp)
  44:	afa20014 	sw	v0,20(sp)
  48:	afa30018 	sw	v1,24(sp)
  4c:	afa4001c 	sw	a0,28(sp)
  50:	afa50020 	sw	a1,32(sp)
  54:	afa60024 	sw	a2,36(sp)
  58:	afa70028 	sw	a3,40(sp)
  5c:	afa8002c 	sw	t0,44(sp)
  60:	afa90030 	sw	t1,48(sp)
  64:	afaa0034 	sw	t2,52(sp)
  68:	afab0038 	sw	t3,56(sp)
  6c:	afac003c 	sw	t4,60(sp)
  70:	afad0040 	sw	t5,64(sp)
  74:	afae0044 	sw	t6,68(sp)
  78:	afaf0048 	sw	t7,72(sp)
  7c:	afb8004c 	sw	t8,76(sp)
  80:	afb90050 	sw	t9,80(sp)
  84:	afbf0054 	sw	ra,84(sp)
  88:	401a7000 	mfc0	k0,$14
  8c:	235afffc 	addi	k0,k0,-4
  90:	afba0058 	sw	k0,88(sp)
  94:	0000d810 	mfhi	k1
  98:	afbb005c 	sw	k1,92(sp)
  9c:	0000d812 	mflo	k1
  a0:	afbb0060 	sw	k1,96(sp)
  a4:	3c062000 	lui	a2,0x2000
  a8:	8cc40020 	lw	a0,32(a2)
  ac:	8cc60010 	lw	a2,16(a2)
  b0:	00862024 	and	a0,a0,a2
  b4:	0c000123 	jal	0x48c
  b8:	23a50000 	addi	a1,sp,0
  bc:	8fa10010 	lw	at,16(sp)
  c0:	8fa20014 	lw	v0,20(sp)
  c4:	8fa30018 	lw	v1,24(sp)
  c8:	8fa4001c 	lw	a0,28(sp)
  cc:	8fa50020 	lw	a1,32(sp)
  d0:	8fa60024 	lw	a2,36(sp)
  d4:	8fa70028 	lw	a3,40(sp)
  d8:	8fa8002c 	lw	t0,44(sp)
  dc:	8fa90030 	lw	t1,48(sp)
  e0:	8faa0034 	lw	t2,52(sp)
  e4:	8fab0038 	lw	t3,56(sp)
  e8:	8fac003c 	lw	t4,60(sp)
  ec:	8fad0040 	lw	t5,64(sp)
  f0:	8fae0044 	lw	t6,68(sp)
  f4:	8faf0048 	lw	t7,72(sp)
  f8:	8fb8004c 	lw	t8,76(sp)
  fc:	8fb90050 	lw	t9,80(sp)
 100:	8fbf0054 	lw	ra,84(sp)
 104:	8fba0058 	lw	k0,88(sp)
 108:	8fbb005c 	lw	k1,92(sp)
 10c:	03600011 	mthi	k1
 110:	8fbb0060 	lw	k1,96(sp)
 114:	03600013 	mtlo	k1
 118:	23bd0068 	addi	sp,sp,104
 11c:	341b0001 	li	k1,0x1
 120:	03400008 	jr	k0
 124:	409b6000 	mtc0	k1,$12
 128:	40026000 	mfc0	v0,$12
 12c:	03e00008 	jr	ra
 130:	40846000 	mtc0	a0,$12
 134:	3c050000 	lui	a1,0x0
 138:	24a50160 	addiu	a1,a1,352
 13c:	8ca60000 	lw	a2,0(a1)
 140:	ac06003c 	sw	a2,60(zero)
 144:	8ca60004 	lw	a2,4(a1)
 148:	ac060040 	sw	a2,64(zero)
 14c:	8ca60008 	lw	a2,8(a1)
 150:	ac060044 	sw	a2,68(zero)
 154:	8ca6000c 	lw	a2,12(a1)
 158:	03e00008 	jr	ra
 15c:	ac060048 	sw	a2,72(zero)
 160:	3c1a1000 	lui	k0,0x1000
 164:	375a003c 	ori	k0,k0,0x3c
 168:	03400008 	jr	k0
 16c:	00000000 	nop
 170:	ac900000 	sw	s0,0(a0)
 174:	ac910004 	sw	s1,4(a0)
 178:	ac920008 	sw	s2,8(a0)
 17c:	ac93000c 	sw	s3,12(a0)
 180:	ac940010 	sw	s4,16(a0)
 184:	ac950014 	sw	s5,20(a0)
 188:	ac960018 	sw	s6,24(a0)
 18c:	ac97001c 	sw	s7,28(a0)
 190:	ac9e0020 	sw	s8,32(a0)
 194:	ac9c0024 	sw	gp,36(a0)
 198:	ac9d0028 	sw	sp,40(a0)
 19c:	ac9f002c 	sw	ra,44(a0)
 1a0:	03e00008 	jr	ra
 1a4:	34020000 	li	v0,0x0
 1a8:	8c900000 	lw	s0,0(a0)
 1ac:	8c910004 	lw	s1,4(a0)
 1b0:	8c920008 	lw	s2,8(a0)
 1b4:	8c93000c 	lw	s3,12(a0)
 1b8:	8c940010 	lw	s4,16(a0)
 1bc:	8c950014 	lw	s5,20(a0)
 1c0:	8c960018 	lw	s6,24(a0)
 1c4:	8c97001c 	lw	s7,28(a0)
 1c8:	8c9e0020 	lw	s8,32(a0)
 1cc:	8c9c0024 	lw	gp,36(a0)
 1d0:	8c9d0028 	lw	sp,40(a0)
 1d4:	8c9f002c 	lw	ra,44(a0)
 1d8:	03e00008 	jr	ra
 1dc:	34a20000 	ori	v0,a1,0x0
 1e0:	00850019 	multu	a0,a1
 1e4:	00001012 	mflo	v0
 1e8:	00002010 	mfhi	a0
 1ec:	03e00008 	jr	ra
 1f0:	acc40000 	sw	a0,0(a2)
 1f4:	0000000c 	syscall
 1f8:	03e00008 	jr	ra
 1fc:	00000000 	nop
 200:	2402ffe0 	li	v0,-32
 204:	3c031000 	lui	v1,0x1000
 208:	00822024 	and	a0,a0,v0
 20c:	34630004 	ori	v1,v1,0x4
 210:	ac640000 	sw	a0,0(v1)
 214:	03e00008 	jr	ra
 218:	ac800000 	sw	zero,0(a0)
 21c:	00861021 	addu	v0,a0,a2
 220:	10820005 	beq	a0,v0,0x238
 224:	30a500ff 	andi	a1,a1,0xff
 228:	a0850000 	sb	a1,0(a0)
 22c:	24840001 	addiu	a0,a0,1
 230:	1482fffd 	bne	a0,v0,0x228
 234:	00000000 	nop
 238:	03e00008 	jr	ra
 23c:	00000000 	nop
 240:	2402ffe0 	li	v0,-32
 244:	00822024 	and	a0,a0,v0
 248:	3c031000 	lui	v1,0x1000
 24c:	ac640000 	sw	a0,0(v1)
 250:	03e00008 	jr	ra
 254:	ac800000 	sw	zero,0(a0)
 258:	27bdffc8 	addiu	sp,sp,-56
 25c:	afbf0034 	sw	ra,52(sp)
 260:	afbe0030 	sw	s8,48(sp)
 264:	afb7002c 	sw	s7,44(sp)
 268:	afb60028 	sw	s6,40(sp)
 26c:	afb50024 	sw	s5,36(sp)
 270:	afb40020 	sw	s4,32(sp)
 274:	afb3001c 	sw	s3,28(sp)
 278:	afb20018 	sw	s2,24(sp)
 27c:	afb10014 	sw	s1,20(sp)
 280:	afb00010 	sw	s0,16(sp)
 284:	3c030000 	lui	v1,0x0
 288:	8c620660 	lw	v0,1632(v1)
 28c:	3c160000 	lui	s6,0x0
 290:	8c43003c 	lw	v1,60(v0)
 294:	8c480004 	lw	t0,4(v0)
 298:	8c490008 	lw	t1,8(v0)
 29c:	8c4a000c 	lw	t2,12(v0)
 2a0:	8c4b0010 	lw	t3,16(v0)
 2a4:	8c4c0014 	lw	t4,20(v0)
 2a8:	8c4d0018 	lw	t5,24(v0)
 2ac:	8c4e001c 	lw	t6,28(v0)
 2b0:	8c4f0020 	lw	t7,32(v0)
 2b4:	8c500024 	lw	s0,36(v0)
 2b8:	8c510028 	lw	s1,40(v0)
 2bc:	8c52002c 	lw	s2,44(v0)
 2c0:	8c530030 	lw	s3,48(v0)
 2c4:	8c540034 	lw	s4,52(v0)
 2c8:	8c550038 	lw	s5,56(v0)
 2cc:	2463001e 	addiu	v1,v1,30
 2d0:	26c70870 	addiu	a3,s6,2160
 2d4:	25080002 	addiu	t0,t0,2
 2d8:	25290004 	addiu	t1,t1,4
 2dc:	254a0006 	addiu	t2,t2,6
 2e0:	256b0008 	addiu	t3,t3,8
 2e4:	258c000a 	addiu	t4,t4,10
 2e8:	25ad000c 	addiu	t5,t5,12
 2ec:	25ce000e 	addiu	t6,t6,14
 2f0:	25ef0010 	addiu	t7,t7,16
 2f4:	ac43003c 	sw	v1,60(v0)
 2f8:	26100012 	addiu	s0,s0,18
 2fc:	24030002 	li	v1,2
 300:	26310014 	addiu	s1,s1,20
 304:	26520016 	addiu	s2,s2,22
 308:	26730018 	addiu	s3,s3,24
 30c:	2694001a 	addiu	s4,s4,26
 310:	26b5001c 	addiu	s5,s5,28
 314:	ac480004 	sw	t0,4(v0)
 318:	ac490008 	sw	t1,8(v0)
 31c:	ac4a000c 	sw	t2,12(v0)
 320:	ac4b0010 	sw	t3,16(v0)
 324:	ac4c0014 	sw	t4,20(v0)
 328:	ac4d0018 	sw	t5,24(v0)
 32c:	ac4e001c 	sw	t6,28(v0)
 330:	ac4f0020 	sw	t7,32(v0)
 334:	ac500024 	sw	s0,36(v0)
 338:	ac510028 	sw	s1,40(v0)
 33c:	ac52002c 	sw	s2,44(v0)
 340:	ac530030 	sw	s3,48(v0)
 344:	ac540034 	sw	s4,52(v0)
 348:	ac550038 	sw	s5,56(v0)
 34c:	ace30004 	sw	v1,4(a3)
 350:	24020004 	li	v0,4
 354:	24030006 	li	v1,6
 358:	ace20008 	sw	v0,8(a3)
 35c:	ace3000c 	sw	v1,12(a3)
 360:	24020008 	li	v0,8
 364:	2403000a 	li	v1,10
 368:	ace20010 	sw	v0,16(a3)
 36c:	ace30014 	sw	v1,20(a3)
 370:	2402000c 	li	v0,12
 374:	2403000e 	li	v1,14
 378:	ace20018 	sw	v0,24(a3)
 37c:	ace3001c 	sw	v1,28(a3)
 380:	24020010 	li	v0,16
 384:	24030012 	li	v1,18
 388:	ace20020 	sw	v0,32(a3)
 38c:	ace30024 	sw	v1,36(a3)
 390:	24020014 	li	v0,20
 394:	24030016 	li	v1,22
 398:	ace20028 	sw	v0,40(a3)
 39c:	ace3002c 	sw	v1,44(a3)
 3a0:	24020018 	li	v0,24
 3a4:	2403001a 	li	v1,26
 3a8:	ace20030 	sw	v0,48(a3)
 3ac:	ace30034 	sw	v1,52(a3)
 3b0:	2402001c 	li	v0,28
 3b4:	2403001e 	li	v1,30
 3b8:	3c1e0000 	lui	s8,0x0
 3bc:	00e02821 	move	a1,a3
 3c0:	ace20038 	sw	v0,56(a3)
 3c4:	ace3003c 	sw	v1,60(a3)
 3c8:	27c40200 	addiu	a0,s8,512
 3cc:	24060040 	li	a2,64
 3d0:	00e0b821 	move	s7,a3
 3d4:	0c00017c 	jal	0x5f0
 3d8:	aec00870 	sw	zero,2160(s6)
 3dc:	3c040000 	lui	a0,0x0
 3e0:	24840240 	addiu	a0,a0,576
 3e4:	02e02821 	move	a1,s7
 3e8:	0c00017c 	jal	0x5f0
 3ec:	24060040 	li	a2,64
 3f0:	02e01021 	move	v0,s7
 3f4:	26e30040 	addiu	v1,s7,64
 3f8:	a0400000 	sb	zero,0(v0)
 3fc:	24420001 	addiu	v0,v0,1
 400:	1443fffd 	bne	v0,v1,0x3f8
 404:	27c40200 	addiu	a0,s8,512
 408:	02e02821 	move	a1,s7
 40c:	0c00017c 	jal	0x5f0
 410:	24060040 	li	a2,64
 414:	8fbf0034 	lw	ra,52(sp)
 418:	8fbe0030 	lw	s8,48(sp)
 41c:	8fb7002c 	lw	s7,44(sp)
 420:	8fb60028 	lw	s6,40(sp)
 424:	8fb50024 	lw	s5,36(sp)
 428:	8fb40020 	lw	s4,32(sp)
 42c:	8fb3001c 	lw	s3,28(sp)
 430:	8fb20018 	lw	s2,24(sp)
 434:	8fb10014 	lw	s1,20(sp)
 438:	8fb00010 	lw	s0,16(sp)
 43c:	00001021 	move	v0,zero
 440:	03e00008 	jr	ra
 444:	27bd0038 	addiu	sp,sp,56
	...
 450:	3c052000 	lui	a1,0x2000
 454:	34a30020 	ori	v1,a1,0x20
 458:	8c620000 	lw	v0,0(v1)
 45c:	00000000 	nop
 460:	30420002 	andi	v0,v0,0x2
 464:	1040fffc 	beqz	v0,0x458
 468:	00001021 	move	v0,zero
 46c:	aca40000 	sw	a0,0(a1)
 470:	03e00008 	jr	ra
 474:	00000000 	nop
 478:	3c032000 	lui	v1,0x2000
 47c:	34630020 	ori	v1,v1,0x20
 480:	8c620000 	lw	v0,0(v1)
 484:	03e00008 	jr	ra
 488:	30420001 	andi	v0,v0,0x1
 48c:	3c042000 	lui	a0,0x2000
 490:	34830020 	ori	v1,a0,0x20
 494:	8c620000 	lw	v0,0(v1)
 498:	00000000 	nop
 49c:	30420002 	andi	v0,v0,0x2
 4a0:	1040fffc 	beqz	v0,0x494
 4a4:	24020049 	li	v0,73
 4a8:	ac820000 	sw	v0,0(a0)
 4ac:	03e00008 	jr	ra
 4b0:	00000000 	nop
 4b4:	3c022000 	lui	v0,0x2000
 4b8:	34480020 	ori	t0,v0,0x20
 4bc:	2406001c 	li	a2,28
 4c0:	01004821 	move	t1,t0
 4c4:	2407fffc 	li	a3,-4
 4c8:	00c41006 	srlv	v0,a0,a2
 4cc:	3042000f 	andi	v0,v0,0xf
 4d0:	2c43000a 	sltiu	v1,v0,10
 4d4:	1060000e 	beqz	v1,0x510
 4d8:	24430057 	addiu	v1,v0,87
 4dc:	24430030 	addiu	v1,v0,48
 4e0:	01202821 	move	a1,t1
 4e4:	8ca20000 	lw	v0,0(a1)
 4e8:	00000000 	nop
 4ec:	30420002 	andi	v0,v0,0x2
 4f0:	1040fffc 	beqz	v0,0x4e4
 4f4:	3c022000 	lui	v0,0x2000
 4f8:	24c6fffc 	addiu	a2,a2,-4
 4fc:	ac430000 	sw	v1,0(v0)
 500:	14c7fff2 	bne	a2,a3,0x4cc
 504:	00c41006 	srlv	v0,a0,a2
 508:	03e00008 	jr	ra
 50c:	00000000 	nop
 510:	01002821 	move	a1,t0
 514:	8ca20000 	lw	v0,0(a1)
 518:	00000000 	nop
 51c:	30420002 	andi	v0,v0,0x2
 520:	1040fffc 	beqz	v0,0x514
 524:	3c022000 	lui	v0,0x2000
 528:	24c6fffc 	addiu	a2,a2,-4
 52c:	ac430000 	sw	v1,0(v0)
 530:	14c7ffe6 	bne	a2,a3,0x4cc
 534:	00c41006 	srlv	v0,a0,a2
 538:	08000142 	j	0x508
 53c:	00000000 	nop
 540:	80850000 	lb	a1,0(a0)
 544:	00000000 	nop
 548:	10a00013 	beqz	a1,0x598
 54c:	2407000a 	li	a3,10
 550:	3c022000 	lui	v0,0x2000
 554:	34480020 	ori	t0,v0,0x20
 558:	2409000d 	li	t1,13
 55c:	01003021 	move	a2,t0
 560:	10a7000f 	beq	a1,a3,0x5a0
 564:	01001821 	move	v1,t0
 568:	24840001 	addiu	a0,a0,1
 56c:	00c01821 	move	v1,a2
 570:	8c620000 	lw	v0,0(v1)
 574:	00000000 	nop
 578:	30420002 	andi	v0,v0,0x2
 57c:	1040fffc 	beqz	v0,0x570
 580:	3c022000 	lui	v0,0x2000
 584:	ac450000 	sw	a1,0(v0)
 588:	80850000 	lb	a1,0(a0)
 58c:	00000000 	nop
 590:	14a0fff3 	bnez	a1,0x560
 594:	00000000 	nop
 598:	03e00008 	jr	ra
 59c:	00001021 	move	v0,zero
 5a0:	8c620000 	lw	v0,0(v1)
 5a4:	00000000 	nop
 5a8:	30420002 	andi	v0,v0,0x2
 5ac:	1040fffc 	beqz	v0,0x5a0
 5b0:	3c022000 	lui	v0,0x2000
 5b4:	ac490000 	sw	t1,0(v0)
 5b8:	0800015b 	j	0x56c
 5bc:	24840001 	addiu	a0,a0,1
 5c0:	3c042000 	lui	a0,0x2000
 5c4:	34830020 	ori	v1,a0,0x20
 5c8:	8c620000 	lw	v0,0(v1)
 5cc:	00000000 	nop
 5d0:	30420001 	andi	v0,v0,0x1
 5d4:	1040fffc 	beqz	v0,0x5c8
 5d8:	00000000 	nop
 5dc:	8c820000 	lw	v0,0(a0)
 5e0:	03e00008 	jr	ra
 5e4:	00000000 	nop
	...
 5f0:	27bdffe0 	addiu	sp,sp,-32
 5f4:	afb20018 	sw	s2,24(sp)
 5f8:	afbf001c 	sw	ra,28(sp)
 5fc:	afb10014 	sw	s1,20(sp)
 600:	afb00010 	sw	s0,16(sp)
 604:	10c0000f 	beqz	a2,0x644
 608:	00809021 	move	s2,a0
 60c:	00c51021 	addu	v0,a2,a1
 610:	2404ffe0 	li	a0,-32
 614:	00441824 	and	v1,v0,a0
 618:	0062102b 	sltu	v0,v1,v0
 61c:	00021140 	sll	v0,v0,0x5
 620:	24630020 	addiu	v1,v1,32
 624:	00a48024 	and	s0,a1,a0
 628:	00438821 	addu	s1,v0,v1
 62c:	12110005 	beq	s0,s1,0x644
 630:	02002021 	move	a0,s0
 634:	0240f809 	jalr	s2
 638:	26100020 	addiu	s0,s0,32
 63c:	1630fffd 	bne	s1,s0,0x634
 640:	02002021 	move	a0,s0
 644:	8fbf001c 	lw	ra,28(sp)
 648:	8fb20018 	lw	s2,24(sp)
 64c:	8fb10014 	lw	s1,20(sp)
 650:	8fb00010 	lw	s0,16(sp)
 654:	03e00008 	jr	ra
 658:	27bd0020 	addiu	sp,sp,32
 65c:	00000000 	nop
Disassembly of section .reginfo:

00400094 <.reginfo>:
  400094:	fffffffe 	0xfffffffe
	...
  4000a8:	00008660 	0x8660
Disassembly of section .data:

00000660 <.data>:
 660:	00000800 	sll	at,zero,0x0
	...
Disassembly of section .bss:

00000670 <.bss>:
	...
Disassembly of section .comment:

00000000 <.comment>:
   0:	00474343 	0x474343
   4:	3a202847 	xori	zero,s1,0x2847
   8:	4e552920 	c3	0x552920
   c:	342e312e 	ori	t6,at,0x312e
  10:	32000047 	andi	zero,s0,0x47
  14:	43433a20 	c0	0x1433a20
  18:	28474e55 	slti	a3,v0,20053
  1c:	2920342e 	slti	zero,t1,13358
  20:	312e3200 	andi	t6,t1,0x3200
  24:	00474343 	0x474343
  28:	3a202847 	xori	zero,s1,0x2847
  2c:	4e552920 	c3	0x552920
  30:	342e312e 	ori	t6,at,0x312e
  34:	Address 0x0000000000000034 is out of bounds.

Disassembly of section .pdr:

00000000 <.pdr>:
	...
  20:	0000003c 	0x3c
	...
  40:	00000128 	0x128
	...
  60:	00000134 	0x134
	...
  80:	00000170 	0x170
	...
  a0:	000001a8 	0x1a8
	...
  c0:	000001e0 	0x1e0
	...
  e0:	000001f4 	0x1f4
	...
 100:	00000200 	sll	zero,zero,0x8
	...
 118:	0000001d 	0x1d
 11c:	0000001f 	0x1f
 120:	0000021c 	0x21c
	...
 138:	0000001d 	0x1d
 13c:	0000001f 	0x1f
 140:	00000240 	sll	zero,zero,0x9
	...
 158:	0000001d 	0x1d
 15c:	0000001f 	0x1f
 160:	00000258 	0x258
 164:	c0ff0000 	lwc0	$31,0(a3)
 168:	fffffffc 	0xfffffffc
	...
 174:	00000038 	0x38
 178:	0000001d 	0x1d
 17c:	0000001f 	0x1f
 180:	00000450 	0x450
	...
 198:	0000001d 	0x1d
 19c:	0000001f 	0x1f
 1a0:	00000478 	0x478
	...
 1b8:	0000001d 	0x1d
 1bc:	0000001f 	0x1f
 1c0:	0000048c 	syscall	0x12
	...
 1d8:	0000001d 	0x1d
 1dc:	0000001f 	0x1f
 1e0:	000004b4 	0x4b4
	...
 1f8:	0000001d 	0x1d
 1fc:	0000001f 	0x1f
 200:	00000540 	sll	zero,zero,0x15
	...
 218:	0000001d 	0x1d
 21c:	0000001f 	0x1f
 220:	000005c0 	sll	zero,zero,0x17
	...
 238:	0000001d 	0x1d
 23c:	0000001f 	0x1f
 240:	000005f0 	0x5f0
 244:	80070000 	lb	a3,0(zero)
 248:	fffffffc 	0xfffffffc
	...
 254:	00000020 	add	zero,zero,zero
 258:	0000001d 	0x1d
 25c:	0000001f 	0x1f
