
main.axf:     file format elf32-bigmips


Disassembly of section .text:

00000000 <.text>:
   0:	3c1c0001 	lui	gp,0x1
   4:	279c8430 	addiu	gp,gp,-31696
   8:	3c050000 	lui	a1,0x0
   c:	24a50438 	addiu	a1,a1,1080
  10:	3c040000 	lui	a0,0x0
  14:	24840680 	addiu	a0,a0,1664
  18:	3c1d0000 	lui	sp,0x0
  1c:	27bd0628 	addiu	sp,sp,1576
  20:	aca00000 	sw	zero,0(a1)
  24:	00a4182a 	slt	v1,a1,a0
  28:	1460fffd 	bnez	v1,0x20
  2c:	24a50004 	addiu	a1,a1,4
  30:	0c000080 	jal	0x200
  34:	00000000 	nop
  38:	0800000e 	j	0x38
  3c:	23bdff98 	addi	sp,sp,-104
  40:	afa10010 	sw	at,16(sp)
  44:	afa20014 	sw	v0,20(sp)
  48:	afa30018 	sw	v1,24(sp)
  4c:	afa4001c 	sw	a0,28(sp)
  50:	afa50020 	sw	a1,32(sp)
  54:	afa60024 	sw	a2,36(sp)
  58:	afa70028 	sw	a3,40(sp)
  5c:	afa8002c 	sw	t0,44(sp)
  60:	afa90030 	sw	t1,48(sp)
  64:	afaa0034 	sw	t2,52(sp)
  68:	afab0038 	sw	t3,56(sp)
  6c:	afac003c 	sw	t4,60(sp)
  70:	afad0040 	sw	t5,64(sp)
  74:	afae0044 	sw	t6,68(sp)
  78:	afaf0048 	sw	t7,72(sp)
  7c:	afb8004c 	sw	t8,76(sp)
  80:	afb90050 	sw	t9,80(sp)
  84:	afbf0054 	sw	ra,84(sp)
  88:	401a7000 	mfc0	k0,c0_epc
  8c:	235afffc 	addi	k0,k0,-4
  90:	afba0058 	sw	k0,88(sp)
  94:	0000d810 	mfhi	k1
  98:	afbb005c 	sw	k1,92(sp)
  9c:	0000d812 	mflo	k1
  a0:	afbb0060 	sw	k1,96(sp)
  a4:	3c062000 	lui	a2,0x2000
  a8:	8cc40020 	lw	a0,32(a2)
  ac:	8cc60010 	lw	a2,16(a2)
  b0:	00862024 	and	a0,a0,a2
  b4:	0c0000ea 	jal	0x3a8
  b8:	23a50000 	addi	a1,sp,0
  bc:	8fa10010 	lw	at,16(sp)
  c0:	8fa20014 	lw	v0,20(sp)
  c4:	8fa30018 	lw	v1,24(sp)
  c8:	8fa4001c 	lw	a0,28(sp)
  cc:	8fa50020 	lw	a1,32(sp)
  d0:	8fa60024 	lw	a2,36(sp)
  d4:	8fa70028 	lw	a3,40(sp)
  d8:	8fa8002c 	lw	t0,44(sp)
  dc:	8fa90030 	lw	t1,48(sp)
  e0:	8faa0034 	lw	t2,52(sp)
  e4:	8fab0038 	lw	t3,56(sp)
  e8:	8fac003c 	lw	t4,60(sp)
  ec:	8fad0040 	lw	t5,64(sp)
  f0:	8fae0044 	lw	t6,68(sp)
  f4:	8faf0048 	lw	t7,72(sp)
  f8:	8fb8004c 	lw	t8,76(sp)
  fc:	8fb90050 	lw	t9,80(sp)
 100:	8fbf0054 	lw	ra,84(sp)
 104:	8fba0058 	lw	k0,88(sp)
 108:	8fbb005c 	lw	k1,92(sp)
 10c:	03600011 	mthi	k1
 110:	8fbb0060 	lw	k1,96(sp)
 114:	03600013 	mtlo	k1
 118:	23bd0068 	addi	sp,sp,104
 11c:	341b0001 	li	k1,0x1
 120:	03400008 	jr	k0
 124:	409b6000 	mtc0	k1,c0_sr
 128:	40026000 	mfc0	v0,c0_sr
 12c:	03e00008 	jr	ra
 130:	40846000 	mtc0	a0,c0_sr
 134:	3c050000 	lui	a1,0x0
 138:	24a50160 	addiu	a1,a1,352
 13c:	8ca60000 	lw	a2,0(a1)
 140:	ac06003c 	sw	a2,60(zero)
 144:	8ca60004 	lw	a2,4(a1)
 148:	ac060040 	sw	a2,64(zero)
 14c:	8ca60008 	lw	a2,8(a1)
 150:	ac060044 	sw	a2,68(zero)
 154:	8ca6000c 	lw	a2,12(a1)
 158:	03e00008 	jr	ra
 15c:	ac060048 	sw	a2,72(zero)
 160:	3c1a1000 	lui	k0,0x1000
 164:	375a003c 	ori	k0,k0,0x3c
 168:	03400008 	jr	k0
 16c:	00000000 	nop
 170:	ac900000 	sw	s0,0(a0)
 174:	ac910004 	sw	s1,4(a0)
 178:	ac920008 	sw	s2,8(a0)
 17c:	ac93000c 	sw	s3,12(a0)
 180:	ac940010 	sw	s4,16(a0)
 184:	ac950014 	sw	s5,20(a0)
 188:	ac960018 	sw	s6,24(a0)
 18c:	ac97001c 	sw	s7,28(a0)
 190:	ac9e0020 	sw	s8,32(a0)
 194:	ac9c0024 	sw	gp,36(a0)
 198:	ac9d0028 	sw	sp,40(a0)
 19c:	ac9f002c 	sw	ra,44(a0)
 1a0:	03e00008 	jr	ra
 1a4:	34020000 	li	v0,0x0
 1a8:	8c900000 	lw	s0,0(a0)
 1ac:	8c910004 	lw	s1,4(a0)
 1b0:	8c920008 	lw	s2,8(a0)
 1b4:	8c93000c 	lw	s3,12(a0)
 1b8:	8c940010 	lw	s4,16(a0)
 1bc:	8c950014 	lw	s5,20(a0)
 1c0:	8c960018 	lw	s6,24(a0)
 1c4:	8c97001c 	lw	s7,28(a0)
 1c8:	8c9e0020 	lw	s8,32(a0)
 1cc:	8c9c0024 	lw	gp,36(a0)
 1d0:	8c9d0028 	lw	sp,40(a0)
 1d4:	8c9f002c 	lw	ra,44(a0)
 1d8:	03e00008 	jr	ra
 1dc:	34a20000 	ori	v0,a1,0x0
 1e0:	00850019 	multu	a0,a1
 1e4:	00001012 	mflo	v0
 1e8:	00002010 	mfhi	a0
 1ec:	03e00008 	jr	ra
 1f0:	acc40000 	sw	a0,0(a2)
 1f4:	0000000c 	syscall
 1f8:	03e00008 	jr	ra
 1fc:	00000000 	nop
 200:	27bdffe8 	addiu	sp,sp,-24
 204:	8f838004 	lw	v1,-32764(gp)
 208:	00001025 	move	v0,zero
 20c:	afbf0014 	sw	ra,20(sp)
 210:	afb00010 	sw	s0,16(sp)
 214:	24050020 	li	a1,32
 218:	8c640000 	lw	a0,0(v1)
 21c:	24630004 	addiu	v1,v1,4
 220:	00822021 	addu	a0,a0,v0
 224:	24420002 	addiu	v0,v0,2
 228:	1445fffb 	bne	v0,a1,0x218
 22c:	ac64fffc 	sw	a0,-4(v1)
 230:	3c100000 	lui	s0,0x0
 234:	26100640 	addiu	s0,s0,1600
 238:	02001825 	move	v1,s0
 23c:	00001025 	move	v0,zero
 240:	24040020 	li	a0,32
 244:	ac620000 	sw	v0,0(v1)
 248:	24420002 	addiu	v0,v0,2
 24c:	1444fffd 	bne	v0,a0,0x244
 250:	24630004 	addiu	v1,v1,4
 254:	24060040 	li	a2,64
 258:	02002825 	move	a1,s0
 25c:	0c0000f9 	jal	0x3e4
 260:	24040004 	li	a0,4
 264:	24060040 	li	a2,64
 268:	02002825 	move	a1,s0
 26c:	0c0000f9 	jal	0x3e4
 270:	00002025 	move	a0,zero
 274:	3c030000 	lui	v1,0x0
 278:	02001025 	move	v0,s0
 27c:	24630680 	addiu	v1,v1,1664
 280:	a0400000 	sb	zero,0(v0)
 284:	24420001 	addiu	v0,v0,1
 288:	1443fffd 	bne	v0,v1,0x280
 28c:	02002825 	move	a1,s0
 290:	24060040 	li	a2,64
 294:	0c0000f9 	jal	0x3e4
 298:	24040004 	li	a0,4
 29c:	8fbf0014 	lw	ra,20(sp)
 2a0:	8fb00010 	lw	s0,16(sp)
 2a4:	00001025 	move	v0,zero
 2a8:	03e00008 	jr	ra
 2ac:	27bd0018 	addiu	sp,sp,24
 2b0:	00863021 	addu	a2,a0,a2
 2b4:	14860003 	bne	a0,a2,0x2c4
 2b8:	00000000 	nop
 2bc:	03e00008 	jr	ra
 2c0:	00000000 	nop
 2c4:	a0850000 	sb	a1,0(a0)
 2c8:	1000fffa 	b	0x2b4
 2cc:	24840001 	addiu	a0,a0,1
 2d0:	3c032000 	lui	v1,0x2000
 2d4:	8c620020 	lw	v0,32(v1)
 2d8:	00000000 	nop
 2dc:	30420002 	andi	v0,v0,0x2
 2e0:	1040fffc 	beqz	v0,0x2d4
 2e4:	00000000 	nop
 2e8:	ac640000 	sw	a0,0(v1)
 2ec:	03e00008 	jr	ra
 2f0:	00001025 	move	v0,zero
 2f4:	80820000 	lb	v0,0(a0)
 2f8:	00802825 	move	a1,a0
 2fc:	14400003 	bnez	v0,0x30c
 300:	2406000a 	li	a2,10
 304:	03e00008 	jr	ra
 308:	00000000 	nop
 30c:	27bdffe8 	addiu	sp,sp,-24
 310:	afbf0014 	sw	ra,20(sp)
 314:	14460003 	bne	v0,a2,0x324
 318:	00000000 	nop
 31c:	0c0000b4 	jal	0x2d0
 320:	2404000d 	li	a0,13
 324:	24a50001 	addiu	a1,a1,1
 328:	80a4ffff 	lb	a0,-1(a1)
 32c:	0c0000b4 	jal	0x2d0
 330:	00000000 	nop
 334:	80a20000 	lb	v0,0(a1)
 338:	00000000 	nop
 33c:	1440fff5 	bnez	v0,0x314
 340:	00000000 	nop
 344:	8fbf0014 	lw	ra,20(sp)
 348:	00000000 	nop
 34c:	03e00008 	jr	ra
 350:	27bd0018 	addiu	sp,sp,24
 354:	27bdffe8 	addiu	sp,sp,-24
 358:	00803825 	move	a3,a0
 35c:	2405001c 	li	a1,28
 360:	afbf0014 	sw	ra,20(sp)
 364:	2406fffc 	li	a2,-4
 368:	00a72006 	srlv	a0,a3,a1
 36c:	3084000f 	andi	a0,a0,0xf
 370:	2c82000a 	sltiu	v0,a0,10
 374:	1040000a 	beqz	v0,0x3a0
 378:	00000000 	nop
 37c:	24840030 	addiu	a0,a0,48
 380:	0c0000b4 	jal	0x2d0
 384:	24a5fffc 	addiu	a1,a1,-4
 388:	14a6fff7 	bne	a1,a2,0x368
 38c:	00000000 	nop
 390:	8fbf0014 	lw	ra,20(sp)
 394:	00000000 	nop
 398:	03e00008 	jr	ra
 39c:	27bd0018 	addiu	sp,sp,24
 3a0:	1000fff7 	b	0x380
 3a4:	24840057 	addiu	a0,a0,87
 3a8:	080000b4 	j	0x2d0
 3ac:	24040049 	li	a0,73
 3b0:	3c022000 	lui	v0,0x2000
 3b4:	8c420020 	lw	v0,32(v0)
 3b8:	03e00008 	jr	ra
 3bc:	30420001 	andi	v0,v0,0x1
 3c0:	3c032000 	lui	v1,0x2000
 3c4:	8c620020 	lw	v0,32(v1)
 3c8:	00000000 	nop
 3cc:	30420001 	andi	v0,v0,0x1
 3d0:	1040fffc 	beqz	v0,0x3c4
 3d4:	00000000 	nop
 3d8:	8c620000 	lw	v0,0(v1)
 3dc:	03e00008 	jr	ra
 3e0:	00000000 	nop
 3e4:	10c0000d 	beqz	a2,0x41c
 3e8:	00c53021 	addu	a2,a2,a1
 3ec:	2402ffe0 	li	v0,-32
 3f0:	00c21824 	and	v1,a2,v0
 3f4:	0066302b 	sltu	a2,v1,a2
 3f8:	00a22824 	and	a1,a1,v0
 3fc:	00063140 	sll	a2,a2,0x5
 400:	24620020 	addiu	v0,v1,32
 404:	00463021 	addu	a2,v0,a2
 408:	3c021000 	lui	v0,0x1000
 40c:	00822021 	addu	a0,a0,v0
 410:	2402ffe0 	li	v0,-32
 414:	14c50003 	bne	a2,a1,0x424
 418:	00a21824 	and	v1,a1,v0
 41c:	03e00008 	jr	ra
 420:	00000000 	nop
 424:	ac830000 	sw	v1,0(a0)
 428:	ac600000 	sw	zero,0(v1)
 42c:	1000fff9 	b	0x414
 430:	24a50020 	addiu	a1,a1,32

Disassembly of section .MIPS.abiflags:

00400000 <.MIPS.abiflags>:
  400000:	00000100 	sll	zero,zero,0x4
  400004:	01010001 	0x1010001
	...

Disassembly of section .reginfo:

00400018 <.reginfo>:
  400018:	fffffffe 	0xfffffffe
	...
  40002c:	00008430 	0x8430

Disassembly of section .sdata:

00000434 <.sdata>:
 434:	00001000 	sll	v0,zero,0x0

Disassembly of section .bss:

00000440 <.bss>:
	...

Disassembly of section .comment:

00000000 <.comment>:
   0:	4743433a 	c1	0x143433a
   4:	2028474e 	addi	t0,at,18254
   8:	55292036 	0x55292036
   c:	2e332e30 	sltiu	s3,s1,11824
	...

Disassembly of section .pdr:

00000000 <.pdr>:
	...
  20:	0000003c 	0x3c
	...
  40:	00000128 	0x128
	...
  60:	00000134 	0x134
	...
  80:	00000170 	0x170
	...
  a0:	000001a8 	0x1a8
	...
  c0:	000001e0 	0x1e0
	...
  e0:	000001f4 	0x1f4
	...
 100:	000002b0 	0x2b0
	...
 118:	0000001d 	0x1d
 11c:	0000001f 	0x1f
 120:	00000200 	sll	zero,zero,0x8
 124:	80010000 	lb	at,0(zero)
 128:	fffffffc 	0xfffffffc
	...
 134:	00000018 	mult	zero,zero
 138:	0000001d 	0x1d
 13c:	0000001f 	0x1f
 140:	000002d0 	0x2d0
	...
 158:	0000001d 	0x1d
 15c:	0000001f 	0x1f
 160:	000002f4 	0x2f4
 164:	80000000 	lb	zero,0(zero)
 168:	fffffffc 	0xfffffffc
	...
 174:	00000018 	mult	zero,zero
 178:	0000001d 	0x1d
 17c:	0000001f 	0x1f
 180:	00000354 	0x354
 184:	80000000 	lb	zero,0(zero)
 188:	fffffffc 	0xfffffffc
	...
 194:	00000018 	mult	zero,zero
 198:	0000001d 	0x1d
 19c:	0000001f 	0x1f
 1a0:	000003a8 	0x3a8
	...
 1b8:	0000001d 	0x1d
 1bc:	0000001f 	0x1f
 1c0:	000003b0 	0x3b0
	...
 1d8:	0000001d 	0x1d
 1dc:	0000001f 	0x1f
 1e0:	000003c0 	sll	zero,zero,0xf
	...
 1f8:	0000001d 	0x1d
 1fc:	0000001f 	0x1f
 200:	000003e4 	0x3e4
	...
 218:	0000001d 	0x1d
 21c:	0000001f 	0x1f

Disassembly of section .gnu.attributes:

00000000 <.gnu.attributes>:
   0:	41000000 	bc0f	0x4
   4:	0f676e75 	jal	0xd9db9d4
   8:	00010000 	sll	zero,at,0x0
   c:	00070401 	0x70401
